; Function Attrs: nounwind uwtable
define internal void @dissect_swils_rca(ptr noundef %0, ptr readnone captures(none) %1, ptr noundef %2, i8 noundef zeroext %3) #0 {
  %5 = icmp eq ptr %2, null
  %6 = icmp ne i8 %3, 0
  %or.cond = or i1 %5, %6
  br i1 %or.cond, label %14, label %7

7:                                                ; preds = %4
  %8 = load i32, ptr @hf_swils_zone_status, align 4
  %9 = tail call ptr @proto_tree_add_item(ptr noundef nonnull %2, i32 noundef %8, ptr noundef %0, i32 noundef 5, i32 noundef 1, i32 noundef 0) #7
  %10 = load i32, ptr @hf_swils_zone_reason, align 4
  %11 = tail call ptr @proto_tree_add_item(ptr noundef nonnull %2, i32 noundef %10, ptr noundef %0, i32 noundef 6, i32 noundef 1, i32 noundef 0) #7
  %12 = load i32, ptr @hf_swils_zone_vendor_unique, align 4
  %13 = tail call ptr @proto_tree_add_item(ptr noundef nonnull %2, i32 noundef %12, ptr noundef %0, i32 noundef 7, i32 noundef 1, i32 noundef 0) #7
  br label %14

14:                                               ; preds = %7, %4
  ret void
}